target datalayout = "e-m:e-p270:32:32-p271:32:32-p272:64:64-i64:64-i128:128-f80:128-n8:16:32:64-S128"
target triple = "x86_64-pc-linux-gnu"

%struct.Aig_Obj_t_ = type { %union.anon, ptr, ptr, i64, i32, i32, %union.anon.0 }
%union.anon = type { ptr }
%union.anon.0 = type { ptr }
%struct.Vec_Int_t_ = type { i32, i32, ptr }
%struct.Aig_Man_t_ = type { ptr, ptr, ptr, ptr, ptr, ptr, ptr, %struct.Aig_Obj_t_, i32, i32, i32, i32, i32, i32, [7 x i32], i32, ptr, i32, ptr, i32, ptr, i32, i32, i32, ptr, i32, i32, i32, i32, i32, ptr, ptr, i32, ptr, ptr, i32, ptr, ptr, i32, i32, i32, ptr, ptr, ptr, ptr, ptr, ptr, ptr, ptr, ptr, ptr, ptr, ptr, ptr, ptr, i32, ptr, ptr, ptr, ptr, i32, i64, i64, i64, ptr, ptr }
%struct.Vec_Ptr_t_ = type { i32, i32, ptr }

@.str = private unnamed_addr constant [28 x i8] c"Mismatch between LO pairs.\0A\00", align 1

; Function Attrs: inlinehint nounwind uwtable
define internal i32 @Aig_ObjCioId(ptr noundef %0) #1 {
  %2 = alloca ptr, align 8
  store ptr %0, ptr %2, align 8, !tbaa !8
  %3 = load ptr, ptr %2, align 8, !tbaa !8
  %4 = getelementptr inbounds nuw %struct.Aig_Obj_t_, ptr %3, i32 0, i32 0
  %5 = load i32, ptr %4, align 8, !tbaa !10
  ret i32 %5
}

; Function Attrs: inlinehint nounwind uwtable
define internal i32 @Aig_ObjIsCi(ptr noundef %0) #1 {
  %2 = alloca ptr, align 8
  store ptr %0, ptr %2, align 8, !tbaa !8
  %3 = load ptr, ptr %2, align 8, !tbaa !8
  %4 = getelementptr inbounds nuw %struct.Aig_Obj_t_, ptr %3, i32 0, i32 3
  %5 = load i64, ptr %4, align 8
  %6 = and i64 %5, 7
  %7 = trunc i64 %6 to i32
  %8 = icmp eq i32 %7, 2
  %9 = zext i1 %8 to i32
  ret i32 %9
}

; Function Attrs: inlinehint nounwind uwtable
define internal i32 @Saig_ObjIsLo(ptr noundef %0, ptr noundef %1) #1 {
  %3 = alloca ptr, align 8
  %4 = alloca ptr, align 8
  store ptr %0, ptr %3, align 8, !tbaa !20
  store ptr %1, ptr %4, align 8, !tbaa !8
  %5 = load ptr, ptr %4, align 8, !tbaa !8
  %6 = call i32 @Aig_ObjIsCi(ptr noundef %5)
  %7 = icmp ne i32 %6, 0
  br i1 %7, label %8, label %14

8:                                                ; preds = %2
  %9 = load ptr, ptr %4, align 8, !tbaa !8
  %10 = call i32 @Aig_ObjCioId(ptr noundef %9)
  %11 = load ptr, ptr %3, align 8, !tbaa !20
  %12 = call i32 @Saig_ManPiNum(ptr noundef %11)
  %13 = icmp sge i32 %10, %12
  br label %14

14:                                               ; preds = %8, %2
  %15 = phi i1 [ false, %2 ], [ %13, %8 ]
  %16 = zext i1 %15 to i32
  ret i32 %16
}

; Function Attrs: inlinehint nounwind uwtable
define internal i32 @Saig_ManRegNum(ptr noundef %0) #1 {
  %2 = alloca ptr, align 8
  store ptr %0, ptr %2, align 8, !tbaa !20
  %3 = load ptr, ptr %2, align 8, !tbaa !20
  %4 = getelementptr inbounds nuw %struct.Aig_Man_t_, ptr %3, i32 0, i32 8
  %5 = load i32, ptr %4, align 8, !tbaa !46
  ret i32 %5
}

; Function Attrs: inlinehint nounwind uwtable
define internal ptr @Aig_ManCo(ptr noundef %0, i32 noundef %1) #1 {
  %3 = alloca ptr, align 8
  %4 = alloca i32, align 4
  store ptr %0, ptr %3, align 8, !tbaa !20
  store i32 %1, ptr %4, align 4, !tbaa !14
  %5 = load ptr, ptr %3, align 8, !tbaa !20
  %6 = getelementptr inbounds nuw %struct.Aig_Man_t_, ptr %5, i32 0, i32 3
  %7 = load ptr, ptr %6, align 8, !tbaa !34
  %8 = load i32, ptr %4, align 4, !tbaa !14
  %9 = call ptr @Vec_PtrEntry(ptr noundef %7, i32 noundef %8)
  ret ptr %9
}

; Function Attrs: inlinehint nounwind uwtable
define internal i32 @Vec_PtrSize(ptr noundef %0) #1 {
  %2 = alloca ptr, align 8
  store ptr %0, ptr %2, align 8, !tbaa !41
  %3 = load ptr, ptr %2, align 8, !tbaa !41
  %4 = getelementptr inbounds nuw %struct.Vec_Ptr_t_, ptr %3, i32 0, i32 1
  %5 = load i32, ptr %4, align 4, !tbaa !45
  ret i32 %5
}

; Function Attrs: inlinehint nounwind uwtable
define internal ptr @Aig_ManCi(ptr noundef %0, i32 noundef %1) #1 {
  %3 = alloca ptr, align 8
  %4 = alloca i32, align 4
  store ptr %0, ptr %3, align 8, !tbaa !20
  store i32 %1, ptr %4, align 4, !tbaa !14
  %5 = load ptr, ptr %3, align 8, !tbaa !20
  %6 = getelementptr inbounds nuw %struct.Aig_Man_t_, ptr %5, i32 0, i32 2
  %7 = load ptr, ptr %6, align 8, !tbaa !24
  %8 = load i32, ptr %4, align 4, !tbaa !14
  %9 = call ptr @Vec_PtrEntry(ptr noundef %7, i32 noundef %8)
  ret ptr %9
}

; Function Attrs: inlinehint nounwind uwtable
define internal ptr @Vec_PtrEntry(ptr noundef %0, i32 noundef %1) #1 {
  %3 = alloca ptr, align 8
  %4 = alloca i32, align 4
  store ptr %0, ptr %3, align 8, !tbaa !41
  store i32 %1, ptr %4, align 4, !tbaa !14
  %5 = load ptr, ptr %3, align 8, !tbaa !41
  %6 = getelementptr inbounds nuw %struct.Vec_Ptr_t_, ptr %5, i32 0, i32 2
  %7 = load ptr, ptr %6, align 8, !tbaa !42
  %8 = load i32, ptr %4, align 4, !tbaa !14
  %9 = sext i32 %8 to i64
  %10 = getelementptr inbounds ptr, ptr %7, i64 %9
  %11 = load ptr, ptr %10, align 8, !tbaa !44
  ret ptr %11
}

; Function Attrs: inlinehint nounwind uwtable
define internal i32 @Saig_ManPiNum(ptr noundef %0) #1 {
  %2 = alloca ptr, align 8
  store ptr %0, ptr %2, align 8, !tbaa !20
  %3 = load ptr, ptr %2, align 8, !tbaa !20
  %4 = getelementptr inbounds nuw %struct.Aig_Man_t_, ptr %3, i32 0, i32 9
  %5 = load i32, ptr %4, align 4, !tbaa !40
  ret i32 %5
}

; Function Attrs: inlinehint nounwind uwtable
define internal ptr @Aig_ManConst1(ptr noundef %0) #1 {
  %2 = alloca ptr, align 8
  store ptr %0, ptr %2, align 8, !tbaa !20
  %3 = load ptr, ptr %2, align 8, !tbaa !20
  %4 = getelementptr inbounds nuw %struct.Aig_Man_t_, ptr %3, i32 0, i32 6
  %5 = load ptr, ptr %4, align 8, !tbaa !39
  ret ptr %5
}

; Function Attrs: inlinehint nounwind uwtable
define internal ptr @Aig_ManObj(ptr noundef %0, i32 noundef %1) #1 {
  %3 = alloca ptr, align 8
  %4 = alloca i32, align 4
  store ptr %0, ptr %3, align 8, !tbaa !20
  store i32 %1, ptr %4, align 4, !tbaa !14
  %5 = load ptr, ptr %3, align 8, !tbaa !20
  %6 = getelementptr inbounds nuw %struct.Aig_Man_t_, ptr %5, i32 0, i32 4
  %7 = load ptr, ptr %6, align 8, !tbaa !38
  %8 = icmp ne ptr %7, null
  br i1 %8, label %9, label %15

9:                                                ; preds = %2
  %10 = load ptr, ptr %3, align 8, !tbaa !20
  %11 = getelementptr inbounds nuw %struct.Aig_Man_t_, ptr %10, i32 0, i32 4
  %12 = load ptr, ptr %11, align 8, !tbaa !38
  %13 = load i32, ptr %4, align 4, !tbaa !14
  %14 = call ptr @Vec_PtrEntry(ptr noundef %12, i32 noundef %13)
  br label %16

15:                                               ; preds = %2
  br label %16

16:                                               ; preds = %15, %9
  %17 = phi ptr [ %14, %9 ], [ null, %15 ]
  ret ptr %17
}

; Function Attrs: inlinehint nounwind uwtable
define internal i32 @Vec_IntEntry(ptr noundef %0, i32 noundef %1) #1 {
  %3 = alloca ptr, align 8
  %4 = alloca i32, align 4
  store ptr %0, ptr %3, align 8, !tbaa !3
  store i32 %1, ptr %4, align 4, !tbaa !14
  %5 = load ptr, ptr %3, align 8, !tbaa !3
  %6 = getelementptr inbounds nuw %struct.Vec_Int_t_, ptr %5, i32 0, i32 2
  %7 = load ptr, ptr %6, align 8, !tbaa !19
  %8 = load i32, ptr %4, align 4, !tbaa !14
  %9 = sext i32 %8 to i64
  %10 = getelementptr inbounds i32, ptr %7, i64 %9
  %11 = load i32, ptr %10, align 4, !tbaa !14
  ret i32 %11
}

; Function Attrs: inlinehint nounwind uwtable
define internal i32 @Vec_IntSize(ptr noundef %0) #1 {
  %2 = alloca ptr, align 8
  store ptr %0, ptr %2, align 8, !tbaa !3
  %3 = load ptr, ptr %2, align 8, !tbaa !3
  %4 = getelementptr inbounds nuw %struct.Vec_Int_t_, ptr %3, i32 0, i32 1
  %5 = load i32, ptr %4, align 4, !tbaa !15
  ret i32 %5
}

; Function Attrs: nounwind uwtable
define void @Ssw_MatchingStart(ptr noundef %0, ptr noundef %1, ptr noundef %2) #0 {
  %4 = alloca ptr, align 8
  %5 = alloca ptr, align 8
  %6 = alloca ptr, align 8
  %7 = alloca ptr, align 8
  %8 = alloca ptr, align 8
  %9 = alloca i32, align 4
  store ptr %0, ptr %4, align 8, !tbaa !20
  store ptr %1, ptr %5, align 8, !tbaa !20
  store ptr %2, ptr %6, align 8, !tbaa !3
  call void @llvm.lifetime.start.p0(i64 8, ptr %7) #9
  call void @llvm.lifetime.start.p0(i64 8, ptr %8) #9
  call void @llvm.lifetime.start.p0(i64 4, ptr %9) #9
  %10 = load ptr, ptr %4, align 8, !tbaa !20
  call void @Aig_ManCleanData(ptr noundef %10)
  %11 = load ptr, ptr %5, align 8, !tbaa !20
  call void @Aig_ManCleanData(ptr noundef %11)
  store i32 0, ptr %9, align 4, !tbaa !14
  br label %12

12:                                               ; preds = %35, %3
  %13 = load i32, ptr %9, align 4, !tbaa !14
  %14 = load ptr, ptr %6, align 8, !tbaa !3
  %15 = call i32 @Vec_IntSize(ptr noundef %14)
  %16 = icmp slt i32 %13, %15
  br i1 %16, label %17, label %38

17:                                               ; preds = %12
  %18 = load ptr, ptr %4, align 8, !tbaa !20
  %19 = load ptr, ptr %6, align 8, !tbaa !3
  %20 = load i32, ptr %9, align 4, !tbaa !14
  %21 = call i32 @Vec_IntEntry(ptr noundef %19, i32 noundef %20)
  %22 = call ptr @Aig_ManObj(ptr noundef %18, i32 noundef %21)
  store ptr %22, ptr %7, align 8, !tbaa !8
  %23 = load ptr, ptr %5, align 8, !tbaa !20
  %24 = load ptr, ptr %6, align 8, !tbaa !3
  %25 = load i32, ptr %9, align 4, !tbaa !14
  %26 = add nsw i32 %25, 1
  %27 = call i32 @Vec_IntEntry(ptr noundef %24, i32 noundef %26)
  %28 = call ptr @Aig_ManObj(ptr noundef %23, i32 noundef %27)
  store ptr %28, ptr %8, align 8, !tbaa !8
  %29 = load ptr, ptr %8, align 8, !tbaa !8
  %30 = load ptr, ptr %7, align 8, !tbaa !8
  %31 = getelementptr inbounds nuw %struct.Aig_Obj_t_, ptr %30, i32 0, i32 6
  store ptr %29, ptr %31, align 8, !tbaa !10
  %32 = load ptr, ptr %7, align 8, !tbaa !8
  %33 = load ptr, ptr %8, align 8, !tbaa !8
  %34 = getelementptr inbounds nuw %struct.Aig_Obj_t_, ptr %33, i32 0, i32 6
  store ptr %32, ptr %34, align 8, !tbaa !10
  br label %35

35:                                               ; preds = %17
  %36 = load i32, ptr %9, align 4, !tbaa !14
  %37 = add nsw i32 %36, 2
  store i32 %37, ptr %9, align 4, !tbaa !14
  br label %12, !llvm.loop !22

38:                                               ; preds = %12
  %39 = load ptr, ptr %4, align 8, !tbaa !20
  %40 = call ptr @Aig_ManConst1(ptr noundef %39)
  store ptr %40, ptr %7, align 8, !tbaa !8
  %41 = load ptr, ptr %5, align 8, !tbaa !20
  %42 = call ptr @Aig_ManConst1(ptr noundef %41)
  store ptr %42, ptr %8, align 8, !tbaa !8
  store i32 0, ptr %9, align 4, !tbaa !14
  br label %43

43:                                               ; preds = %60, %38
  %44 = load i32, ptr %9, align 4, !tbaa !14
  %45 = load ptr, ptr %4, align 8, !tbaa !20
  %46 = call i32 @Saig_ManPiNum(ptr noundef %45)
  %47 = icmp slt i32 %44, %46
  br i1 %47, label %48, label %54

48:                                               ; preds = %43
  %49 = load ptr, ptr %4, align 8, !tbaa !20
  %50 = getelementptr inbounds nuw %struct.Aig_Man_t_, ptr %49, i32 0, i32 2
  %51 = load ptr, ptr %50, align 8, !tbaa !24
  %52 = load i32, ptr %9, align 4, !tbaa !14
  %53 = call ptr @Vec_PtrEntry(ptr noundef %51, i32 noundef %52)
  store ptr %53, ptr %7, align 8, !tbaa !8
  br label %54

54:                                               ; preds = %48, %43
  %55 = phi i1 [ false, %43 ], [ true, %48 ]
  br i1 %55, label %56, label %63

56:                                               ; preds = %54
  %57 = load ptr, ptr %5, align 8, !tbaa !20
  %58 = load i32, ptr %9, align 4, !tbaa !14
  %59 = call ptr @Aig_ManCi(ptr noundef %57, i32 noundef %58)
  store ptr %59, ptr %8, align 8, !tbaa !8
  br label %60

60:                                               ; preds = %56
  %61 = load i32, ptr %9, align 4, !tbaa !14
  %62 = add nsw i32 %61, 1
  store i32 %62, ptr %9, align 4, !tbaa !14
  br label %43, !llvm.loop !33

63:                                               ; preds = %54
  store i32 0, ptr %9, align 4, !tbaa !14
  br label %64

64:                                               ; preds = %83, %63
  %65 = load i32, ptr %9, align 4, !tbaa !14
  %66 = load ptr, ptr %4, align 8, !tbaa !20
  %67 = getelementptr inbounds nuw %struct.Aig_Man_t_, ptr %66, i32 0, i32 3
  %68 = load ptr, ptr %67, align 8, !tbaa !34
  %69 = call i32 @Vec_PtrSize(ptr noundef %68)
  %70 = icmp slt i32 %65, %69
  br i1 %70, label %71, label %77

71:                                               ; preds = %64
  %72 = load ptr, ptr %4, align 8, !tbaa !20
  %73 = getelementptr inbounds nuw %struct.Aig_Man_t_, ptr %72, i32 0, i32 3
  %74 = load ptr, ptr %73, align 8, !tbaa !34
  %75 = load i32, ptr %9, align 4, !tbaa !14
  %76 = call ptr @Vec_PtrEntry(ptr noundef %74, i32 noundef %75)
  store ptr %76, ptr %7, align 8, !tbaa !8
  br label %77

77:                                               ; preds = %71, %64
  %78 = phi i1 [ false, %64 ], [ true, %71 ]
  br i1 %78, label %79, label %86

79:                                               ; preds = %77
  %80 = load ptr, ptr %5, align 8, !tbaa !20
  %81 = load i32, ptr %9, align 4, !tbaa !14
  %82 = call ptr @Aig_ManCo(ptr noundef %80, i32 noundef %81)
  store ptr %82, ptr %8, align 8, !tbaa !8
  br label %83

83:                                               ; preds = %79
  %84 = load i32, ptr %9, align 4, !tbaa !14
  %85 = add nsw i32 %84, 1
  store i32 %85, ptr %9, align 4, !tbaa !14
  br label %64, !llvm.loop !35

86:                                               ; preds = %77
  store i32 0, ptr %9, align 4, !tbaa !14
  br label %87

87:                                               ; preds = %119, %86
  %88 = load i32, ptr %9, align 4, !tbaa !14
  %89 = load ptr, ptr %4, align 8, !tbaa !20
  %90 = call i32 @Saig_ManRegNum(ptr noundef %89)
  %91 = icmp slt i32 %88, %90
  br i1 %91, label %92, label %101

92:                                               ; preds = %87
  %93 = load ptr, ptr %4, align 8, !tbaa !20
  %94 = getelementptr inbounds nuw %struct.Aig_Man_t_, ptr %93, i32 0, i32 2
  %95 = load ptr, ptr %94, align 8, !tbaa !24
  %96 = load i32, ptr %9, align 4, !tbaa !14
  %97 = load ptr, ptr %4, align 8, !tbaa !20
  %98 = call i32 @Saig_ManPiNum(ptr noundef %97)
  %99 = add nsw i32 %96, %98
  %100 = call ptr @Vec_PtrEntry(ptr noundef %95, i32 noundef %99)
  store ptr %100, ptr %7, align 8, !tbaa !8
  br label %101

101:                                              ; preds = %92, %87
  %102 = phi i1 [ false, %87 ], [ true, %92 ]
  br i1 %102, label %103, label %122

103:                                              ; preds = %101
  %104 = load ptr, ptr %7, align 8, !tbaa !8
  %105 = getelementptr inbounds nuw %struct.Aig_Obj_t_, ptr %104, i32 0, i32 6
  %106 = load ptr, ptr %105, align 8, !tbaa !10
  %107 = icmp eq ptr %106, null
  br i1 %107, label %108, label %109

108:                                              ; preds = %103
  br label %119

109:                                              ; preds = %103
  %110 = load ptr, ptr %7, align 8, !tbaa !8
  %111 = getelementptr inbounds nuw %struct.Aig_Obj_t_, ptr %110, i32 0, i32 6
  %112 = load ptr, ptr %111, align 8, !tbaa !10
  store ptr %112, ptr %8, align 8, !tbaa !8
  %113 = load ptr, ptr %5, align 8, !tbaa !20
  %114 = load ptr, ptr %8, align 8, !tbaa !8
  %115 = call i32 @Saig_ObjIsLo(ptr noundef %113, ptr noundef %114)
  %116 = icmp ne i32 %115, 0
  br i1 %116, label %118, label %117

117:                                              ; preds = %109
  call void (i32, ptr, ...) @Abc_Print(i32 noundef 1, ptr noundef @.str)
  br label %118

118:                                              ; preds = %117, %109
  br label %119

119:                                              ; preds = %118, %108
  %120 = load i32, ptr %9, align 4, !tbaa !14
  %121 = add nsw i32 %120, 1
  store i32 %121, ptr %9, align 4, !tbaa !14
  br label %87, !llvm.loop !36

122:                                              ; preds = %101
  store i32 0, ptr %9, align 4, !tbaa !14
  br label %123

123:                                              ; preds = %155, %122
  %124 = load i32, ptr %9, align 4, !tbaa !14
  %125 = load ptr, ptr %5, align 8, !tbaa !20
  %126 = call i32 @Saig_ManRegNum(ptr noundef %125)
  %127 = icmp slt i32 %124, %126
  br i1 %127, label %128, label %137

128:                                              ; preds = %123
  %129 = load ptr, ptr %5, align 8, !tbaa !20
  %130 = getelementptr inbounds nuw %struct.Aig_Man_t_, ptr %129, i32 0, i32 2
  %131 = load ptr, ptr %130, align 8, !tbaa !24
  %132 = load i32, ptr %9, align 4, !tbaa !14
  %133 = load ptr, ptr %5, align 8, !tbaa !20
  %134 = call i32 @Saig_ManPiNum(ptr noundef %133)
  %135 = add nsw i32 %132, %134
  %136 = call ptr @Vec_PtrEntry(ptr noundef %131, i32 noundef %135)
  store ptr %136, ptr %8, align 8, !tbaa !8
  br label %137

137:                                              ; preds = %128, %123
  %138 = phi i1 [ false, %123 ], [ true, %128 ]
  br i1 %138, label %139, label %158

139:                                              ; preds = %137
  %140 = load ptr, ptr %8, align 8, !tbaa !8
  %141 = getelementptr inbounds nuw %struct.Aig_Obj_t_, ptr %140, i32 0, i32 6
  %142 = load ptr, ptr %141, align 8, !tbaa !10
  %143 = icmp eq ptr %142, null
  br i1 %143, label %144, label %145

144:                                              ; preds = %139
  br label %155

145:                                              ; preds = %139
  %146 = load ptr, ptr %8, align 8, !tbaa !8
  %147 = getelementptr inbounds nuw %struct.Aig_Obj_t_, ptr %146, i32 0, i32 6
  %148 = load ptr, ptr %147, align 8, !tbaa !10
  store ptr %148, ptr %7, align 8, !tbaa !8
  %149 = load ptr, ptr %4, align 8, !tbaa !20
  %150 = load ptr, ptr %7, align 8, !tbaa !8
  %151 = call i32 @Saig_ObjIsLo(ptr noundef %149, ptr noundef %150)
  %152 = icmp ne i32 %151, 0
  br i1 %152, label %154, label %153

153:                                              ; preds = %145
  call void (i32, ptr, ...) @Abc_Print(i32 noundef 1, ptr noundef @.str)
  br label %154

154:                                              ; preds = %153, %145
  br label %155

155:                                              ; preds = %154, %144
  %156 = load i32, ptr %9, align 4, !tbaa !14
  %157 = add nsw i32 %156, 1
  store i32 %157, ptr %9, align 4, !tbaa !14
  br label %123, !llvm.loop !37

158:                                              ; preds = %137
  call void @llvm.lifetime.end.p0(i64 4, ptr %9) #9
  call void @llvm.lifetime.end.p0(i64 8, ptr %8) #9
  call void @llvm.lifetime.end.p0(i64 8, ptr %7) #9
  ret void
}