; Function Attrs: nounwind uwtable
define void @Ssw_MatchingStart(ptr noundef %0, ptr noundef %1, ptr noundef readonly captures(none) %2) local_unnamed_addr #1 {
  tail call void @Aig_ManCleanData(ptr noundef %0) #15
  tail call void @Aig_ManCleanData(ptr noundef %1) #15
  %4 = getelementptr i8, ptr %2, i64 4
  %.val90 = load i32, ptr %4, align 4, !tbaa !11
  %5 = icmp sgt i32 %.val90, 0
  br i1 %5, label %Aig_ManObj.exit.lr.ph, label %.preheader

Aig_ManObj.exit.lr.ph:                            ; preds = %3
  %6 = getelementptr i8, ptr %2, i64 8
  %7 = getelementptr i8, ptr %0, i64 32
  %8 = getelementptr i8, ptr %1, i64 32
  br label %Aig_ManObj.exit

.preheader:                                       ; preds = %Aig_ManObj.exit, %3
  %9 = getelementptr i8, ptr %0, i64 108
  %10 = getelementptr i8, ptr %0, i64 104
  %.val7592 = load i32, ptr %10, align 8, !tbaa !17
  %11 = icmp sgt i32 %.val7592, 0
  br i1 %11, label %.lr.ph, label %.critedge4.preheader

Aig_ManObj.exit:                                  ; preds = %Aig_ManObj.exit.lr.ph, %Aig_ManObj.exit
  %indvars.iv = phi i64 [ 0, %Aig_ManObj.exit.lr.ph ], [ %indvars.iv.next, %Aig_ManObj.exit ]
  %.val59 = load ptr, ptr %6, align 8, !tbaa !15
  %12 = getelementptr inbounds nuw i32, ptr %.val59, i64 %indvars.iv
  %13 = load i32, ptr %12, align 4, !tbaa !16
  %.val65 = load ptr, ptr %7, align 8, !tbaa !28, !nonnull !29, !noundef !29
  %14 = getelementptr i8, ptr %.val65, i64 8
  %.val.i = load ptr, ptr %14, align 8, !tbaa !30
  %15 = sext i32 %13 to i64
  %16 = getelementptr inbounds ptr, ptr %.val.i, i64 %15
  %17 = load ptr, ptr %16, align 8, !tbaa !32
  %18 = or disjoint i64 %indvars.iv, 1
  %19 = getelementptr inbounds nuw i32, ptr %.val59, i64 %18
  %20 = load i32, ptr %19, align 4, !tbaa !16
  %.val66 = load ptr, ptr %8, align 8, !tbaa !28, !nonnull !29, !noundef !29
  %21 = getelementptr i8, ptr %.val66, i64 8
  %.val.i78 = load ptr, ptr %21, align 8, !tbaa !30
  %22 = sext i32 %20 to i64
  %23 = getelementptr inbounds ptr, ptr %.val.i78, i64 %22
  %24 = load ptr, ptr %23, align 8, !tbaa !32
  %25 = getelementptr inbounds nuw i8, ptr %17, i64 40
  store ptr %24, ptr %25, align 8, !tbaa !3
  %26 = getelementptr inbounds nuw i8, ptr %24, i64 40
  store ptr %17, ptr %26, align 8, !tbaa !3
  %indvars.iv.next = add nuw nsw i64 %indvars.iv, 2
  %.val = load i32, ptr %4, align 4, !tbaa !11
  %27 = sext i32 %.val to i64
  %28 = icmp slt i64 %indvars.iv.next, %27
  br i1 %28, label %Aig_ManObj.exit, label %.preheader, !llvm.loop !33

.lr.ph:                                           ; preds = %.preheader
  %29 = getelementptr inbounds nuw i8, ptr %0, i64 16
  %30 = getelementptr i8, ptr %1, i64 108
  br label %35

.critedge4.preheader:                             ; preds = %.critedge2, %.preheader
  %31 = getelementptr i8, ptr %1, i64 104
  %.val7694 = load i32, ptr %31, align 8, !tbaa !17
  %32 = icmp sgt i32 %.val7694, 0
  br i1 %32, label %.lr.ph96, label %.critedge6

.lr.ph96:                                         ; preds = %.critedge4.preheader
  %33 = getelementptr inbounds nuw i8, ptr %1, i64 16
  %34 = getelementptr i8, ptr %1, i64 108
  br label %50

35:                                               ; preds = %.lr.ph, %.critedge2
  %.val7598 = phi i32 [ %.val7592, %.lr.ph ], [ %.val75, %.critedge2 ]
  %.393 = phi i32 [ 0, %.lr.ph ], [ %48, %.critedge2 ]
  %36 = load ptr, ptr %29, align 8, !tbaa !35
  %.val70 = load i32, ptr %9, align 4, !tbaa !36
  %37 = add nsw i32 %.val70, %.393
  %38 = getelementptr i8, ptr %36, i64 8
  %.val63 = load ptr, ptr %38, align 8, !tbaa !30
  %39 = sext i32 %37 to i64
  %40 = getelementptr inbounds ptr, ptr %.val63, i64 %39
  %41 = load ptr, ptr %40, align 8, !tbaa !32
  %42 = getelementptr inbounds nuw i8, ptr %41, i64 40
  %43 = load ptr, ptr %42, align 8, !tbaa !3
  %44 = icmp eq ptr %43, null
  br i1 %44, label %.critedge2, label %45

45:                                               ; preds = %35
  %46 = getelementptr i8, ptr %43, i64 24
  %.val3.i = load i64, ptr %46, align 8
  %47 = and i64 %.val3.i, 7
  %.not.i80 = icmp eq i64 %47, 2
  br i1 %.not.i80, label %Saig_ObjIsLo.exit, label %Saig_ObjIsLo.exit.thread

Saig_ObjIsLo.exit:                                ; preds = %45
  %.val4.i = load i32, ptr %43, align 8, !tbaa !3
  %.val.i81 = load i32, ptr %30, align 4, !tbaa !36
  %.not = icmp slt i32 %.val4.i, %.val.i81
  br i1 %.not, label %Saig_ObjIsLo.exit.thread, label %.critedge2

Saig_ObjIsLo.exit.thread:                         ; preds = %45, %Saig_ObjIsLo.exit
  tail call void (i32, ptr, ...) @Abc_Print(i32 poison, ptr noundef nonnull @.str)
  %.val75.pre = load i32, ptr %10, align 8, !tbaa !17
  br label %.critedge2

.critedge2:                                       ; preds = %Saig_ObjIsLo.exit, %Saig_ObjIsLo.exit.thread, %35
  %.val75 = phi i32 [ %.val7598, %Saig_ObjIsLo.exit ], [ %.val75.pre, %Saig_ObjIsLo.exit.thread ], [ %.val7598, %35 ]
  %48 = add nuw nsw i32 %.393, 1
  %49 = icmp slt i32 %48, %.val75
  br i1 %49, label %35, label %.critedge4.preheader, !llvm.loop !37

50:                                               ; preds = %.lr.ph96, %.critedge4
  %.val76100 = phi i32 [ %.val7694, %.lr.ph96 ], [ %.val76, %.critedge4 ]
  %.495 = phi i32 [ 0, %.lr.ph96 ], [ %63, %.critedge4 ]
  %51 = load ptr, ptr %33, align 8, !tbaa !35
  %.val71 = load i32, ptr %34, align 4, !tbaa !36
  %52 = add nsw i32 %.val71, %.495
  %53 = getelementptr i8, ptr %51, i64 8
  %.val64 = load ptr, ptr %53, align 8, !tbaa !30
  %54 = sext i32 %52 to i64
  %55 = getelementptr inbounds ptr, ptr %.val64, i64 %54
  %56 = load ptr, ptr %55, align 8, !tbaa !32
  %57 = getelementptr inbounds nuw i8, ptr %56, i64 40
  %58 = load ptr, ptr %57, align 8, !tbaa !3
  %59 = icmp eq ptr %58, null
  br i1 %59, label %.critedge4, label %60

60:                                               ; preds = %50
  %61 = getelementptr i8, ptr %58, i64 24
  %.val3.i82 = load i64, ptr %61, align 8
  %62 = and i64 %.val3.i82, 7
  %.not.i83 = icmp eq i64 %62, 2
  br i1 %.not.i83, label %Saig_ObjIsLo.exit86, label %Saig_ObjIsLo.exit86.thread

Saig_ObjIsLo.exit86:                              ; preds = %60
  %.val4.i84 = load i32, ptr %58, align 8, !tbaa !3
  %.val.i85 = load i32, ptr %9, align 4, !tbaa !36
  %.not89 = icmp slt i32 %.val4.i84, %.val.i85
  br i1 %.not89, label %Saig_ObjIsLo.exit86.thread, label %.critedge4

Saig_ObjIsLo.exit86.thread:                       ; preds = %60, %Saig_ObjIsLo.exit86
  tail call void (i32, ptr, ...) @Abc_Print(i32 poison, ptr noundef nonnull @.str)
  %.val76.pre = load i32, ptr %31, align 8, !tbaa !17
  br label %.critedge4

.critedge4:                                       ; preds = %Saig_ObjIsLo.exit86, %Saig_ObjIsLo.exit86.thread, %50
  %.val76 = phi i32 [ %.val76100, %Saig_ObjIsLo.exit86 ], [ %.val76.pre, %Saig_ObjIsLo.exit86.thread ], [ %.val76100, %50 ]
  %63 = add nuw nsw i32 %.495, 1
  %64 = icmp slt i32 %63, %.val76
  br i1 %64, label %50, label %.critedge6, !llvm.loop !38

.critedge6:                                       ; preds = %.critedge4, %.critedge4.preheader
  ret void
}